; Function Attrs: mustprogress noreturn uwtable
define internal void @"_ZNSt17_Function_handlerIFvvEZZN3nix30mountAndPidNamespacesSupportedEvENK3$_0clEvEUlvE_E9_M_invokeERKSt9_Any_data"(ptr nocapture nonnull readnone align 8 %0) #15 align 2 {
  %2 = tail call i32 @mount(ptr noundef null, ptr noundef nonnull @.str.36, ptr noundef null, i64 noundef 278528, ptr noundef null) #25
  %3 = icmp eq i32 %2, -1
  br i1 %3, label %4, label %5

4:                                                ; preds = %1
  tail call void @_exit(i32 noundef 1) #28
  unreachable

5:                                                ; preds = %1
  %6 = tail call i32 @mount(ptr noundef nonnull @.str.37, ptr noundef nonnull @.str.38, ptr noundef nonnull @.str.39, i64 noundef 0, ptr noundef null) #25
  %7 = icmp eq i32 %6, -1
  br i1 %7, label %8, label %9

8:                                                ; preds = %5
  tail call void @_exit(i32 noundef 2) #28
  unreachable

9:                                                ; preds = %5
  tail call void @_exit(i32 noundef 0) #28
  unreachable
}